target datalayout = "e-m:e-p270:32:32-p271:32:32-p272:64:64-i64:64-i128:128-f80:128-n8:16:32:64-S128"
target triple = "x86_64-pc-linux-gnu"

%struct.H5B2_hdr_t = type { %struct.H5C_cache_entry_t, %struct.H5B2_node_ptr_t, i8, i8, i32, i32, i16, i8, ptr, i64, i64, i64, i64, i8, i8, i8, ptr, ptr, ptr, ptr, ptr, ptr, ptr, i8, ptr, ptr, i64, ptr, ptr }
%struct.H5C_cache_entry_t = type { ptr, i64, i64, ptr, i8, ptr, i8, i8, i8, i8, i32, i8, i8, i8, i8, i8, i32, ptr, i32, i32, i32, i32, i32, i8, i8, ptr, ptr, ptr, ptr, ptr, ptr, i8, i32, i8, i64, ptr, i64, i64, i32, i8, i32, i32, i8, ptr, ptr, ptr }
%struct.H5B2_node_ptr_t = type { i64, i16, i64 }
%struct.H5B2_class_t = type { i32, ptr, i64, ptr, ptr, ptr, ptr, ptr, ptr, ptr }
%struct.H5B2_node_info_t = type { i32, i32, i32, i64, i8, ptr, ptr }

@H5B2_init_g = external global i8, align 1
@H5_libterm_g = external global i8, align 1
@.str = private unnamed_addr constant [101 x i8] c"generated/home/dtcxzyw/WorkSpace/Projects/compilers/llvm-opt-benchmark/bench/hdf5/hdf5/src/H5B2dbg.c\00", align 1
@__func__.H5B2__hdr_debug = private unnamed_addr constant [16 x i8] c"H5B2__hdr_debug\00", align 1
@H5E_BTREE_g = external global i64, align 8
@H5E_CANTLOAD_g = external global i64, align 8
@.str.1 = private unnamed_addr constant [29 x i8] c"unable to load B-tree header\00", align 1
@.str.2 = private unnamed_addr constant [24 x i8] c"%*sv2 B-tree Header...\0A\00", align 1
@.str.3 = private unnamed_addr constant [1 x i8] zeroinitializer, align 1
@.str.4 = private unnamed_addr constant [17 x i8] c"%*s%-*s %s (%u)\0A\00", align 1
@.str.5 = private unnamed_addr constant [14 x i8] c"Tree type ID:\00", align 1
@.str.6 = private unnamed_addr constant [12 x i8] c"%*s%-*s %u\0A\00", align 1
@.str.7 = private unnamed_addr constant [14 x i8] c"Size of node:\00", align 1
@.str.8 = private unnamed_addr constant [27 x i8] c"Size of raw (disk) record:\00", align 1
@.str.9 = private unnamed_addr constant [12 x i8] c"%*s%-*s %s\0A\00", align 1
@.str.10 = private unnamed_addr constant [12 x i8] c"Dirty flag:\00", align 1
@.str.11 = private unnamed_addr constant [5 x i8] c"True\00", align 1
@.str.12 = private unnamed_addr constant [6 x i8] c"False\00", align 1
@.str.13 = private unnamed_addr constant [7 x i8] c"Depth:\00", align 1
@.str.14 = private unnamed_addr constant [13 x i8] c"%*s%-*s %lu\0A\00", align 1
@.str.15 = private unnamed_addr constant [27 x i8] c"Number of records in tree:\00", align 1
@.str.16 = private unnamed_addr constant [32 x i8] c"Number of records in root node:\00", align 1
@.str.17 = private unnamed_addr constant [22 x i8] c"Address of root node:\00", align 1
@.str.18 = private unnamed_addr constant [15 x i8] c"Split percent:\00", align 1
@.str.19 = private unnamed_addr constant [15 x i8] c"Merge percent:\00", align 1
@.str.20 = private unnamed_addr constant [48 x i8] c"%*sNode Info: (max_nrec/split_nrec/merge_nrec)\0A\00", align 1
@.str.21 = private unnamed_addr constant [10 x i8] c"Depth %u:\00", align 1
@.str.22 = private unnamed_addr constant [20 x i8] c"%*s%-*s (%u/%u/%u)\0A\00", align 1
@H5E_PROTECT_g = external global i64, align 8
@.str.23 = private unnamed_addr constant [35 x i8] c"unable to release v2 B-tree header\00", align 1

; Function Attrs: nounwind uwtable
define i32 @H5B2__hdr_debug(ptr noundef %0, i64 noundef %1, ptr noundef %2, i32 noundef %3, i32 noundef %4, ptr noundef %5, i64 noundef %6) #0 {
  %8 = alloca ptr, align 8
  %9 = alloca i64, align 8
  %10 = alloca ptr, align 8
  %11 = alloca i32, align 4
  %12 = alloca i32, align 4
  %13 = alloca ptr, align 8
  %14 = alloca i64, align 8
  %15 = alloca ptr, align 8
  %16 = alloca i32, align 4
  %17 = alloca [128 x i8], align 16
  %18 = alloca i32, align 4
  %19 = alloca i8, align 1
  store ptr %0, ptr %8, align 8, !tbaa !3
  store i64 %1, ptr %9, align 8, !tbaa !8
  store ptr %2, ptr %10, align 8, !tbaa !10
  store i32 %3, ptr %11, align 4, !tbaa !12
  store i32 %4, ptr %12, align 4, !tbaa !12
  store ptr %5, ptr %13, align 8, !tbaa !14
  store i64 %6, ptr %14, align 8, !tbaa !8
  call void @llvm.lifetime.start.p0(i64 8, ptr %15) #5
  store ptr null, ptr %15, align 8, !tbaa !16
  call void @llvm.lifetime.start.p0(i64 4, ptr %16) #5
  call void @llvm.lifetime.start.p0(i64 128, ptr %17) #5
  call void @llvm.lifetime.start.p0(i64 4, ptr %18) #5
  store i32 0, ptr %18, align 4, !tbaa !12
  call void @llvm.lifetime.start.p0(i64 1, ptr %19) #5
  store i8 0, ptr %19, align 1, !tbaa !18
  %20 = load i8, ptr @H5B2_init_g, align 1, !tbaa !18, !range !20, !noundef !21
  %21 = trunc i8 %20 to i1
  br i1 %21, label %26, label %22

22:                                               ; preds = %7
  %23 = load i8, ptr @H5_libterm_g, align 1, !tbaa !18, !range !20, !noundef !21
  %24 = trunc i8 %23 to i1
  %25 = xor i1 %24, true
  br label %26

26:                                               ; preds = %22, %7
  %27 = phi i1 [ true, %7 ], [ %25, %22 ]
  %28 = xor i1 %27, true
  %29 = xor i1 %28, true
  %30 = zext i1 %29 to i32
  %31 = sext i32 %30 to i64
  %32 = call i64 @llvm.expect.i64(i64 %31, i64 1)
  %33 = icmp ne i64 %32, 0
  br i1 %33, label %34, label %234

34:                                               ; preds = %26
  %35 = load ptr, ptr %8, align 8, !tbaa !3
  %36 = load i64, ptr %9, align 8, !tbaa !8
  %37 = load ptr, ptr %8, align 8, !tbaa !3
  %38 = call ptr @H5B2__hdr_protect(ptr noundef %35, i64 noundef %36, ptr noundef %37, i32 noundef 128)
  store ptr %38, ptr %15, align 8, !tbaa !16
  %39 = icmp eq ptr null, %38
  br i1 %39, label %40, label %59

40:                                               ; preds = %34
  br label %41

41:                                               ; preds = %40
  br label %42

42:                                               ; preds = %41
  br label %43

43:                                               ; preds = %42
  %44 = load i64, ptr @H5E_BTREE_g, align 8, !tbaa !8
  %45 = load i64, ptr @H5E_CANTLOAD_g, align 8, !tbaa !8
  %46 = call i32 (ptr, ptr, i32, i64, i64, ptr, ...) @H5E_printf_stack(ptr noundef @.str, ptr noundef @__func__.H5B2__hdr_debug, i32 noundef 96, i64 noundef %44, i64 noundef %45, ptr noundef @.str.1)
  br label %47

47:                                               ; preds = %43
  br label %48

48:                                               ; preds = %47
  store i8 1, ptr %19, align 1, !tbaa !18
  %49 = load i8, ptr %19, align 1, !tbaa !18, !range !20, !noundef !21
  %50 = trunc i8 %49 to i1
  %51 = zext i1 %50 to i8
  store i8 %51, ptr %19, align 1, !tbaa !18
  br label %52

52:                                               ; preds = %48
  br label %53

53:                                               ; preds = %52
  br label %54

54:                                               ; preds = %53
  store i32 -1, ptr %18, align 4, !tbaa !12
  br label %210

55:                                               ; No predecessors!
  br label %56

56:                                               ; preds = %55
  br label %57

57:                                               ; preds = %56
  br label %58

58:                                               ; preds = %57
  br label %59

59:                                               ; preds = %58, %34
  %60 = load ptr, ptr %8, align 8, !tbaa !3
  %61 = load ptr, ptr %15, align 8, !tbaa !16
  %62 = getelementptr inbounds nuw %struct.H5B2_hdr_t, ptr %61, i32 0, i32 8
  store ptr %60, ptr %62, align 8, !tbaa !22
  %63 = load ptr, ptr %10, align 8, !tbaa !10
  %64 = load i32, ptr %11, align 4, !tbaa !12
  %65 = call i32 (ptr, ptr, ...) @fprintf(ptr noundef %63, ptr noundef @.str.2, i32 noundef %64, ptr noundef @.str.3) #5
  %66 = load ptr, ptr %10, align 8, !tbaa !10
  %67 = load i32, ptr %11, align 4, !tbaa !12
  %68 = load i32, ptr %12, align 4, !tbaa !12
  %69 = load ptr, ptr %15, align 8, !tbaa !16
  %70 = getelementptr inbounds nuw %struct.H5B2_hdr_t, ptr %69, i32 0, i32 27
  %71 = load ptr, ptr %70, align 8, !tbaa !35
  %72 = getelementptr inbounds nuw %struct.H5B2_class_t, ptr %71, i32 0, i32 1
  %73 = load ptr, ptr %72, align 8, !tbaa !36
  %74 = load ptr, ptr %15, align 8, !tbaa !16
  %75 = getelementptr inbounds nuw %struct.H5B2_hdr_t, ptr %74, i32 0, i32 27
  %76 = load ptr, ptr %75, align 8, !tbaa !35
  %77 = getelementptr inbounds nuw %struct.H5B2_class_t, ptr %76, i32 0, i32 0
  %78 = load i32, ptr %77, align 8, !tbaa !38
  %79 = call i32 (ptr, ptr, ...) @fprintf(ptr noundef %66, ptr noundef @.str.4, i32 noundef %67, ptr noundef @.str.3, i32 noundef %68, ptr noundef @.str.5, ptr noundef %73, i32 noundef %78) #5
  %80 = load ptr, ptr %10, align 8, !tbaa !10
  %81 = load i32, ptr %11, align 4, !tbaa !12
  %82 = load i32, ptr %12, align 4, !tbaa !12
  %83 = load ptr, ptr %15, align 8, !tbaa !16
  %84 = getelementptr inbounds nuw %struct.H5B2_hdr_t, ptr %83, i32 0, i32 4
  %85 = load i32, ptr %84, align 4, !tbaa !39
  %86 = call i32 (ptr, ptr, ...) @fprintf(ptr noundef %80, ptr noundef @.str.6, i32 noundef %81, ptr noundef @.str.3, i32 noundef %82, ptr noundef @.str.7, i32 noundef %85) #5
  %87 = load ptr, ptr %10, align 8, !tbaa !10
  %88 = load i32, ptr %11, align 4, !tbaa !12
  %89 = load i32, ptr %12, align 4, !tbaa !12
  %90 = load ptr, ptr %15, align 8, !tbaa !16
  %91 = getelementptr inbounds nuw %struct.H5B2_hdr_t, ptr %90, i32 0, i32 5
  %92 = load i32, ptr %91, align 8, !tbaa !40
  %93 = call i32 (ptr, ptr, ...) @fprintf(ptr noundef %87, ptr noundef @.str.6, i32 noundef %88, ptr noundef @.str.3, i32 noundef %89, ptr noundef @.str.8, i32 noundef %92) #5
  %94 = load ptr, ptr %10, align 8, !tbaa !10
  %95 = load i32, ptr %11, align 4, !tbaa !12
  %96 = load i32, ptr %12, align 4, !tbaa !12
  %97 = load ptr, ptr %15, align 8, !tbaa !16
  %98 = getelementptr inbounds nuw %struct.H5B2_hdr_t, ptr %97, i32 0, i32 0
  %99 = getelementptr inbounds nuw %struct.H5C_cache_entry_t, ptr %98, i32 0, i32 6
  %100 = load i8, ptr %99, align 8, !tbaa !41, !range !20, !noundef !21
  %101 = trunc i8 %100 to i1
  %102 = select i1 %101, ptr @.str.11, ptr @.str.12
  %103 = call i32 (ptr, ptr, ...) @fprintf(ptr noundef %94, ptr noundef @.str.9, i32 noundef %95, ptr noundef @.str.3, i32 noundef %96, ptr noundef @.str.10, ptr noundef %102) #5
  %104 = load ptr, ptr %10, align 8, !tbaa !10
  %105 = load i32, ptr %11, align 4, !tbaa !12
  %106 = load i32, ptr %12, align 4, !tbaa !12
  %107 = load ptr, ptr %15, align 8, !tbaa !16
  %108 = getelementptr inbounds nuw %struct.H5B2_hdr_t, ptr %107, i32 0, i32 6
  %109 = load i16, ptr %108, align 4, !tbaa !42
  %110 = zext i16 %109 to i32
  %111 = call i32 (ptr, ptr, ...) @fprintf(ptr noundef %104, ptr noundef @.str.6, i32 noundef %105, ptr noundef @.str.3, i32 noundef %106, ptr noundef @.str.13, i32 noundef %110) #5
  %112 = load ptr, ptr %10, align 8, !tbaa !10
  %113 = load i32, ptr %11, align 4, !tbaa !12
  %114 = load i32, ptr %12, align 4, !tbaa !12
  %115 = load ptr, ptr %15, align 8, !tbaa !16
  %116 = getelementptr inbounds nuw %struct.H5B2_hdr_t, ptr %115, i32 0, i32 1
  %117 = getelementptr inbounds nuw %struct.H5B2_node_ptr_t, ptr %116, i32 0, i32 2
  %118 = load i64, ptr %117, align 8, !tbaa !43
  %119 = call i32 (ptr, ptr, ...) @fprintf(ptr noundef %112, ptr noundef @.str.14, i32 noundef %113, ptr noundef @.str.3, i32 noundef %114, ptr noundef @.str.15, i64 noundef %118) #5
  %120 = load ptr, ptr %10, align 8, !tbaa !10
  %121 = load i32, ptr %11, align 4, !tbaa !12
  %122 = load i32, ptr %12, align 4, !tbaa !12
  %123 = load ptr, ptr %15, align 8, !tbaa !16
  %124 = getelementptr inbounds nuw %struct.H5B2_hdr_t, ptr %123, i32 0, i32 1
  %125 = getelementptr inbounds nuw %struct.H5B2_node_ptr_t, ptr %124, i32 0, i32 1
  %126 = load i16, ptr %125, align 8, !tbaa !44
  %127 = zext i16 %126 to i32
  %128 = call i32 (ptr, ptr, ...) @fprintf(ptr noundef %120, ptr noundef @.str.6, i32 noundef %121, ptr noundef @.str.3, i32 noundef %122, ptr noundef @.str.16, i32 noundef %127) #5
  %129 = load ptr, ptr %10, align 8, !tbaa !10
  %130 = load i32, ptr %11, align 4, !tbaa !12
  %131 = load i32, ptr %12, align 4, !tbaa !12
  %132 = load ptr, ptr %15, align 8, !tbaa !16
  %133 = getelementptr inbounds nuw %struct.H5B2_hdr_t, ptr %132, i32 0, i32 1
  %134 = getelementptr inbounds nuw %struct.H5B2_node_ptr_t, ptr %133, i32 0, i32 0
  %135 = load i64, ptr %134, align 8, !tbaa !45
  %136 = call i32 (ptr, ptr, ...) @fprintf(ptr noundef %129, ptr noundef @.str.14, i32 noundef %130, ptr noundef @.str.3, i32 noundef %131, ptr noundef @.str.17, i64 noundef %135) #5
  %137 = load ptr, ptr %10, align 8, !tbaa !10
  %138 = load i32, ptr %11, align 4, !tbaa !12
  %139 = load i32, ptr %12, align 4, !tbaa !12
  %140 = load ptr, ptr %15, align 8, !tbaa !16
  %141 = getelementptr inbounds nuw %struct.H5B2_hdr_t, ptr %140, i32 0, i32 2
  %142 = load i8, ptr %141, align 8, !tbaa !46
  %143 = zext i8 %142 to i32
  %144 = call i32 (ptr, ptr, ...) @fprintf(ptr noundef %137, ptr noundef @.str.6, i32 noundef %138, ptr noundef @.str.3, i32 noundef %139, ptr noundef @.str.18, i32 noundef %143) #5
  %145 = load ptr, ptr %10, align 8, !tbaa !10
  %146 = load i32, ptr %11, align 4, !tbaa !12
  %147 = load i32, ptr %12, align 4, !tbaa !12
  %148 = load ptr, ptr %15, align 8, !tbaa !16
  %149 = getelementptr inbounds nuw %struct.H5B2_hdr_t, ptr %148, i32 0, i32 3
  %150 = load i8, ptr %149, align 1, !tbaa !47
  %151 = zext i8 %150 to i32
  %152 = call i32 (ptr, ptr, ...) @fprintf(ptr noundef %145, ptr noundef @.str.6, i32 noundef %146, ptr noundef @.str.3, i32 noundef %147, ptr noundef @.str.19, i32 noundef %151) #5
  %153 = load ptr, ptr %10, align 8, !tbaa !10
  %154 = load i32, ptr %11, align 4, !tbaa !12
  %155 = call i32 (ptr, ptr, ...) @fprintf(ptr noundef %153, ptr noundef @.str.20, i32 noundef %154, ptr noundef @.str.3) #5
  store i32 0, ptr %16, align 4, !tbaa !12
  br label %156

156:                                              ; preds = %206, %59
  %157 = load i32, ptr %16, align 4, !tbaa !12
  %158 = load ptr, ptr %15, align 8, !tbaa !16
  %159 = getelementptr inbounds nuw %struct.H5B2_hdr_t, ptr %158, i32 0, i32 6
  %160 = load i16, ptr %159, align 4, !tbaa !42
  %161 = zext i16 %160 to i32
  %162 = add nsw i32 %161, 1
  %163 = icmp ult i32 %157, %162
  br i1 %163, label %164, label %209

164:                                              ; preds = %156
  %165 = getelementptr inbounds [128 x i8], ptr %17, i64 0, i64 0
  %166 = load i32, ptr %16, align 4, !tbaa !12
  %167 = call i32 (ptr, i64, ptr, ...) @snprintf(ptr noundef %165, i64 noundef 128, ptr noundef @.str.21, i32 noundef %166) #5
  %168 = load ptr, ptr %10, align 8, !tbaa !10
  %169 = load i32, ptr %11, align 4, !tbaa !12
  %170 = add nsw i32 %169, 3
  %171 = load i32, ptr %12, align 4, !tbaa !12
  %172 = sub nsw i32 %171, 3
  %173 = icmp sgt i32 0, %172
  br i1 %173, label %174, label %175

174:                                              ; preds = %164
  br label %178

175:                                              ; preds = %164
  %176 = load i32, ptr %12, align 4, !tbaa !12
  %177 = sub nsw i32 %176, 3
  br label %178

178:                                              ; preds = %175, %174
  %179 = phi i32 [ 0, %174 ], [ %177, %175 ]
  %180 = getelementptr inbounds [128 x i8], ptr %17, i64 0, i64 0
  %181 = load ptr, ptr %15, align 8, !tbaa !16
  %182 = getelementptr inbounds nuw %struct.H5B2_hdr_t, ptr %181, i32 0, i32 20
  %183 = load ptr, ptr %182, align 8, !tbaa !48
  %184 = load i32, ptr %16, align 4, !tbaa !12
  %185 = zext i32 %184 to i64
  %186 = getelementptr inbounds nuw %struct.H5B2_node_info_t, ptr %183, i64 %185
  %187 = getelementptr inbounds nuw %struct.H5B2_node_info_t, ptr %186, i32 0, i32 0
  %188 = load i32, ptr %187, align 8, !tbaa !49
  %189 = load ptr, ptr %15, align 8, !tbaa !16
  %190 = getelementptr inbounds nuw %struct.H5B2_hdr_t, ptr %189, i32 0, i32 20
  %191 = load ptr, ptr %190, align 8, !tbaa !48
  %192 = load i32, ptr %16, align 4, !tbaa !12
  %193 = zext i32 %192 to i64
  %194 = getelementptr inbounds nuw %struct.H5B2_node_info_t, ptr %191, i64 %193
  %195 = getelementptr inbounds nuw %struct.H5B2_node_info_t, ptr %194, i32 0, i32 1
  %196 = load i32, ptr %195, align 4, !tbaa !52
  %197 = load ptr, ptr %15, align 8, !tbaa !16
  %198 = getelementptr inbounds nuw %struct.H5B2_hdr_t, ptr %197, i32 0, i32 20
  %199 = load ptr, ptr %198, align 8, !tbaa !48
  %200 = load i32, ptr %16, align 4, !tbaa !12
  %201 = zext i32 %200 to i64
  %202 = getelementptr inbounds nuw %struct.H5B2_node_info_t, ptr %199, i64 %201
  %203 = getelementptr inbounds nuw %struct.H5B2_node_info_t, ptr %202, i32 0, i32 2
  %204 = load i32, ptr %203, align 8, !tbaa !53
  %205 = call i32 (ptr, ptr, ...) @fprintf(ptr noundef %168, ptr noundef @.str.22, i32 noundef %170, ptr noundef @.str.3, i32 noundef %179, ptr noundef %180, i32 noundef %188, i32 noundef %196, i32 noundef %204) #5
  br label %206

206:                                              ; preds = %178
  %207 = load i32, ptr %16, align 4, !tbaa !12
  %208 = add i32 %207, 1
  store i32 %208, ptr %16, align 4, !tbaa !12
  br label %156, !llvm.loop !54

209:                                              ; preds = %156
  br label %210

210:                                              ; preds = %209, %54
  %211 = load ptr, ptr %15, align 8, !tbaa !16
  %212 = icmp ne ptr %211, null
  br i1 %212, label %213, label %233

213:                                              ; preds = %210
  %214 = load ptr, ptr %15, align 8, !tbaa !16
  %215 = call i32 @H5B2__hdr_unprotect(ptr noundef %214, i32 noundef 0)
  %216 = icmp slt i32 %215, 0
  br i1 %216, label %217, label %233

217:                                              ; preds = %213
  br label %218

218:                                              ; preds = %217
  br label %219

219:                                              ; preds = %218
  br label %220

220:                                              ; preds = %219
  %221 = load i64, ptr @H5E_BTREE_g, align 8, !tbaa !8
  %222 = load i64, ptr @H5E_PROTECT_g, align 8, !tbaa !8
  %223 = call i32 (ptr, ptr, i32, i64, i64, ptr, ...) @H5E_printf_stack(ptr noundef @.str, ptr noundef @__func__.H5B2__hdr_debug, i32 noundef 133, i64 noundef %221, i64 noundef %222, ptr noundef @.str.23)
  br label %224

224:                                              ; preds = %220
  br label %225

225:                                              ; preds = %224
  store i8 1, ptr %19, align 1, !tbaa !18
  %226 = load i8, ptr %19, align 1, !tbaa !18, !range !20, !noundef !21
  %227 = trunc i8 %226 to i1
  %228 = zext i1 %227 to i8
  store i8 %228, ptr %19, align 1, !tbaa !18
  br label %229

229:                                              ; preds = %225
  br label %230

230:                                              ; preds = %229
  store i32 -1, ptr %18, align 4, !tbaa !12
  br label %231

231:                                              ; preds = %230
  br label %232

232:                                              ; preds = %231
  br label %233

233:                                              ; preds = %232, %213, %210
  br label %234

234:                                              ; preds = %233, %26
  %235 = load i32, ptr %18, align 4, !tbaa !12
  call void @llvm.lifetime.end.p0(i64 1, ptr %19) #5
  call void @llvm.lifetime.end.p0(i64 4, ptr %18) #5
  call void @llvm.lifetime.end.p0(i64 128, ptr %17) #5
  call void @llvm.lifetime.end.p0(i64 4, ptr %16) #5
  call void @llvm.lifetime.end.p0(i64 8, ptr %15) #5
  ret i32 %235
}