; Function Attrs: nounwind uwtable
define range(i32 -1, 1) i32 @H5B2__hdr_debug(ptr noundef %0, i64 noundef %1, ptr noundef captures(none) %2, i32 noundef %3, i32 noundef %4, ptr noundef readnone captures(none) %5, i64 noundef %6) local_unnamed_addr #0 {
  %8 = alloca [128 x i8], align 16
  call void @llvm.lifetime.start.p0(i64 128, ptr nonnull %8) #5
  %9 = load i8, ptr @H5B2_init_g, align 1, !tbaa !3, !range !7, !noundef !8
  %10 = trunc nuw i8 %9 to i1
  %11 = load i8, ptr @H5_libterm_g, align 1, !range !7
  %12 = trunc nuw i8 %11 to i1
  %13 = xor i1 %12, true
  %14 = select i1 %10, i1 true, i1 %13
  br i1 %14, label %15, label %88, !prof !9

15:                                               ; preds = %7
  %16 = tail call ptr @H5B2__hdr_protect(ptr noundef %0, i64 noundef %1, ptr noundef %0, i32 noundef 128) #5
  %17 = icmp eq ptr %16, null
  br i1 %17, label %.thread, label %21

.thread:                                          ; preds = %15
  %18 = load i64, ptr @H5E_BTREE_g, align 8, !tbaa !10
  %19 = load i64, ptr @H5E_CANTLOAD_g, align 8, !tbaa !10
  %20 = tail call i32 (ptr, ptr, i32, i64, i64, ptr, ...) @H5E_printf_stack(ptr noundef nonnull @.str, ptr noundef nonnull @__func__.H5B2__hdr_debug, i32 noundef 96, i64 noundef %18, i64 noundef %19, ptr noundef nonnull @.str.1) #5
  br label %88

21:                                               ; preds = %15
  %22 = getelementptr inbounds nuw i8, ptr %16, i64 288
  store ptr %0, ptr %22, align 8, !tbaa !12
  %23 = tail call i32 (ptr, ptr, ...) @fprintf(ptr noundef %2, ptr noundef nonnull @.str.2, i32 noundef %3, ptr noundef nonnull @.str.3) #5
  %24 = getelementptr inbounds nuw i8, ptr %16, i64 424
  %25 = load ptr, ptr %24, align 8, !tbaa !29
  %26 = getelementptr inbounds nuw i8, ptr %25, i64 8
  %27 = load ptr, ptr %26, align 8, !tbaa !30
  %28 = load i32, ptr %25, align 8, !tbaa !32
  %29 = tail call i32 (ptr, ptr, ...) @fprintf(ptr noundef %2, ptr noundef nonnull @.str.4, i32 noundef %3, ptr noundef nonnull @.str.3, i32 noundef %4, ptr noundef nonnull @.str.5, ptr noundef %27, i32 noundef %28) #5
  %30 = getelementptr inbounds nuw i8, ptr %16, i64 276
  %31 = load i32, ptr %30, align 4, !tbaa !33
  %32 = tail call i32 (ptr, ptr, ...) @fprintf(ptr noundef %2, ptr noundef nonnull @.str.6, i32 noundef %3, ptr noundef nonnull @.str.3, i32 noundef %4, ptr noundef nonnull @.str.7, i32 noundef %31) #5
  %33 = getelementptr inbounds nuw i8, ptr %16, i64 280
  %34 = load i32, ptr %33, align 8, !tbaa !34
  %35 = tail call i32 (ptr, ptr, ...) @fprintf(ptr noundef %2, ptr noundef nonnull @.str.6, i32 noundef %3, ptr noundef nonnull @.str.3, i32 noundef %4, ptr noundef nonnull @.str.8, i32 noundef %34) #5
  %36 = getelementptr inbounds nuw i8, ptr %16, i64 48
  %37 = load i8, ptr %36, align 8, !tbaa !35, !range !7, !noundef !8
  %38 = trunc nuw i8 %37 to i1
  %39 = select i1 %38, ptr @.str.11, ptr @.str.12
  %40 = tail call i32 (ptr, ptr, ...) @fprintf(ptr noundef %2, ptr noundef nonnull @.str.9, i32 noundef %3, ptr noundef nonnull @.str.3, i32 noundef %4, ptr noundef nonnull @.str.10, ptr noundef nonnull %39) #5
  %41 = getelementptr inbounds nuw i8, ptr %16, i64 284
  %42 = load i16, ptr %41, align 4, !tbaa !36
  %43 = zext i16 %42 to i32
  %44 = tail call i32 (ptr, ptr, ...) @fprintf(ptr noundef %2, ptr noundef nonnull @.str.6, i32 noundef %3, ptr noundef nonnull @.str.3, i32 noundef %4, ptr noundef nonnull @.str.13, i32 noundef %43) #5
  %45 = getelementptr inbounds nuw i8, ptr %16, i64 248
  %46 = getelementptr inbounds nuw i8, ptr %16, i64 264
  %47 = load i64, ptr %46, align 8, !tbaa !37
  %48 = tail call i32 (ptr, ptr, ...) @fprintf(ptr noundef %2, ptr noundef nonnull @.str.14, i32 noundef %3, ptr noundef nonnull @.str.3, i32 noundef %4, ptr noundef nonnull @.str.15, i64 noundef %47) #5
  %49 = getelementptr inbounds nuw i8, ptr %16, i64 256
  %50 = load i16, ptr %49, align 8, !tbaa !38
  %51 = zext i16 %50 to i32
  %52 = tail call i32 (ptr, ptr, ...) @fprintf(ptr noundef %2, ptr noundef nonnull @.str.6, i32 noundef %3, ptr noundef nonnull @.str.3, i32 noundef %4, ptr noundef nonnull @.str.16, i32 noundef %51) #5
  %53 = load i64, ptr %45, align 8, !tbaa !39
  %54 = tail call i32 (ptr, ptr, ...) @fprintf(ptr noundef %2, ptr noundef nonnull @.str.14, i32 noundef %3, ptr noundef nonnull @.str.3, i32 noundef %4, ptr noundef nonnull @.str.17, i64 noundef %53) #5
  %55 = getelementptr inbounds nuw i8, ptr %16, i64 272
  %56 = load i8, ptr %55, align 8, !tbaa !40
  %57 = zext i8 %56 to i32
  %58 = tail call i32 (ptr, ptr, ...) @fprintf(ptr noundef %2, ptr noundef nonnull @.str.6, i32 noundef %3, ptr noundef nonnull @.str.3, i32 noundef %4, ptr noundef nonnull @.str.18, i32 noundef %57) #5
  %59 = getelementptr inbounds nuw i8, ptr %16, i64 273
  %60 = load i8, ptr %59, align 1, !tbaa !41
  %61 = zext i8 %60 to i32
  %62 = tail call i32 (ptr, ptr, ...) @fprintf(ptr noundef %2, ptr noundef nonnull @.str.6, i32 noundef %3, ptr noundef nonnull @.str.3, i32 noundef %4, ptr noundef nonnull @.str.19, i32 noundef %61) #5
  %63 = tail call i32 (ptr, ptr, ...) @fprintf(ptr noundef %2, ptr noundef nonnull @.str.20, i32 noundef %3, ptr noundef nonnull @.str.3) #5
  %64 = add nsw i32 %3, 3
  %65 = tail call i32 @llvm.smax.i32(i32 %4, i32 3)
  %66 = add nsw i32 %65, -3
  %67 = getelementptr inbounds nuw i8, ptr %16, i64 368
  br label %68

68:                                               ; preds = %21, %68
  %indvars.iv = phi i64 [ 0, %21 ], [ %indvars.iv.next, %68 ]
  %69 = trunc nuw nsw i64 %indvars.iv to i32
  %70 = call i32 (ptr, i64, ptr, ...) @snprintf(ptr noundef nonnull dereferenceable(1) %8, i64 noundef 128, ptr noundef nonnull @.str.21, i32 noundef %69) #5
  %71 = load ptr, ptr %67, align 8, !tbaa !42
  %72 = getelementptr inbounds nuw %struct.H5B2_node_info_t, ptr %71, i64 %indvars.iv
  %73 = load i32, ptr %72, align 8, !tbaa !43
  %74 = getelementptr inbounds nuw i8, ptr %72, i64 4
  %75 = load i32, ptr %74, align 4, !tbaa !46
  %76 = getelementptr inbounds nuw i8, ptr %72, i64 8
  %77 = load i32, ptr %76, align 8, !tbaa !47
  %78 = call i32 (ptr, ptr, ...) @fprintf(ptr noundef %2, ptr noundef nonnull @.str.22, i32 noundef %64, ptr noundef nonnull @.str.3, i32 noundef %66, ptr noundef nonnull %8, i32 noundef %73, i32 noundef %75, i32 noundef %77) #5
  %indvars.iv.next = add nuw nsw i64 %indvars.iv, 1
  %79 = load i16, ptr %41, align 4, !tbaa !36
  %80 = zext i16 %79 to i64
  %.not.not = icmp samesign ult i64 %indvars.iv, %80
  br i1 %.not.not, label %68, label %81, !llvm.loop !48

81:                                               ; preds = %68
  %82 = call i32 @H5B2__hdr_unprotect(ptr noundef nonnull %16, i32 noundef 0) #5
  %83 = icmp slt i32 %82, 0
  br i1 %83, label %84, label %88

84:                                               ; preds = %81
  %85 = load i64, ptr @H5E_BTREE_g, align 8, !tbaa !10
  %86 = load i64, ptr @H5E_PROTECT_g, align 8, !tbaa !10
  %87 = call i32 (ptr, ptr, i32, i64, i64, ptr, ...) @H5E_printf_stack(ptr noundef nonnull @.str, ptr noundef nonnull @__func__.H5B2__hdr_debug, i32 noundef 133, i64 noundef %85, i64 noundef %86, ptr noundef nonnull @.str.23) #5
  br label %88

88:                                               ; preds = %.thread, %81, %84, %7
  %.0 = phi i32 [ -1, %84 ], [ 0, %81 ], [ 0, %7 ], [ -1, %.thread ]
  call void @llvm.lifetime.end.p0(i64 128, ptr nonnull %8) #5
  ret i32 %.0
}